target datalayout = "e-m:e-p270:32:32-p271:32:32-p272:64:64-i64:64-i128:128-f80:128-n8:16:32:64-S128"
target triple = "x86_64-pc-linux-gnu"

%struct.VP8Residual = type { i32, i32, ptr, i32, ptr, ptr, ptr }
%struct.__loadu_si128 = type { <2 x i64> }

; Function Attrs: inlinehint nounwind uwtable
define internal i32 @BitsLog2Floor(i32 noundef %0) #4 {
  %2 = alloca i32, align 4
  store i32 %0, ptr %2, align 4, !tbaa !12
  %3 = load i32, ptr %2, align 4, !tbaa !12
  %4 = call i32 @llvm.ctlz.i32(i32 %3, i1 true)
  %5 = xor i32 31, %4
  ret i32 %5
}

; Function Attrs: alwaysinline nounwind uwtable
define internal i32 @_mm_movemask_epi8(<2 x i64> noundef %0) #3 {
  %2 = alloca <2 x i64>, align 16
  store <2 x i64> %0, ptr %2, align 16, !tbaa !11
  %3 = load <2 x i64>, ptr %2, align 16, !tbaa !11
  %4 = bitcast <2 x i64> %3 to <16 x i8>
  %5 = call i32 @llvm.x86.sse2.pmovmskb.128(<16 x i8> %4)
  ret i32 %5
}

; Function Attrs: alwaysinline nounwind uwtable
define internal <2 x i64> @_mm_cmpeq_epi8(<2 x i64> noundef %0, <2 x i64> noundef %1) #3 {
  %3 = alloca <2 x i64>, align 16
  %4 = alloca <2 x i64>, align 16
  store <2 x i64> %0, ptr %3, align 16, !tbaa !11
  store <2 x i64> %1, ptr %4, align 16, !tbaa !11
  %5 = load <2 x i64>, ptr %3, align 16, !tbaa !11
  %6 = bitcast <2 x i64> %5 to <16 x i8>
  %7 = load <2 x i64>, ptr %4, align 16, !tbaa !11
  %8 = bitcast <2 x i64> %7 to <16 x i8>
  %9 = icmp eq <16 x i8> %6, %8
  %10 = sext <16 x i1> %9 to <16 x i8>
  %11 = bitcast <16 x i8> %10 to <2 x i64>
  ret <2 x i64> %11
}

; Function Attrs: alwaysinline nounwind uwtable
define internal <2 x i64> @_mm_packs_epi16(<2 x i64> noundef %0, <2 x i64> noundef %1) #3 {
  %3 = alloca <2 x i64>, align 16
  %4 = alloca <2 x i64>, align 16
  store <2 x i64> %0, ptr %3, align 16, !tbaa !11
  store <2 x i64> %1, ptr %4, align 16, !tbaa !11
  %5 = load <2 x i64>, ptr %3, align 16, !tbaa !11
  %6 = bitcast <2 x i64> %5 to <8 x i16>
  %7 = load <2 x i64>, ptr %4, align 16, !tbaa !11
  %8 = bitcast <2 x i64> %7 to <8 x i16>
  %9 = call <16 x i8> @llvm.x86.sse2.packsswb.128(<8 x i16> %6, <8 x i16> %8)
  %10 = bitcast <16 x i8> %9 to <2 x i64>
  ret <2 x i64> %10
}

; Function Attrs: alwaysinline nounwind uwtable
define internal <2 x i64> @_mm_setzero_si128() #3 {
  %1 = alloca <2 x i64>, align 16
  store <2 x i64> zeroinitializer, ptr %1, align 16, !tbaa !11
  %2 = load <2 x i64>, ptr %1, align 16, !tbaa !11
  ret <2 x i64> %2
}

; Function Attrs: alwaysinline nounwind uwtable
define internal <2 x i64> @_mm_loadu_si128(ptr noundef %0) #3 {
  %2 = alloca ptr, align 8
  store ptr %0, ptr %2, align 8, !tbaa !3
  %3 = load ptr, ptr %2, align 8, !tbaa !3
  %4 = getelementptr inbounds nuw %struct.__loadu_si128, ptr %3, i32 0, i32 0
  %5 = load <2 x i64>, ptr %4, align 1, !tbaa !11
  ret <2 x i64> %5
}

; Function Attrs: nounwind uwtable
define internal void @SetResidualCoeffs_SSE2(ptr noalias noundef %0, ptr noalias noundef %1) #1 {
  %3 = alloca ptr, align 8
  %4 = alloca ptr, align 8
  %5 = alloca <2 x i64>, align 16
  %6 = alloca <2 x i64>, align 16
  %7 = alloca <2 x i64>, align 16
  %8 = alloca <2 x i64>, align 16
  %9 = alloca <2 x i64>, align 16
  %10 = alloca i32, align 4
  store ptr %0, ptr %3, align 8, !tbaa !7
  store ptr %1, ptr %4, align 8, !tbaa !9
  call void @llvm.lifetime.start.p0(i64 16, ptr %5) #7
  %11 = load ptr, ptr %3, align 8, !tbaa !7
  %12 = getelementptr inbounds i16, ptr %11, i64 0
  %13 = call <2 x i64> @_mm_loadu_si128(ptr noundef %12)
  store <2 x i64> %13, ptr %5, align 16, !tbaa !11
  call void @llvm.lifetime.start.p0(i64 16, ptr %6) #7
  %14 = load ptr, ptr %3, align 8, !tbaa !7
  %15 = getelementptr inbounds i16, ptr %14, i64 8
  %16 = call <2 x i64> @_mm_loadu_si128(ptr noundef %15)
  store <2 x i64> %16, ptr %6, align 16, !tbaa !11
  call void @llvm.lifetime.start.p0(i64 16, ptr %7) #7
  %17 = call <2 x i64> @_mm_setzero_si128()
  store <2 x i64> %17, ptr %7, align 16, !tbaa !11
  call void @llvm.lifetime.start.p0(i64 16, ptr %8) #7
  %18 = load <2 x i64>, ptr %5, align 16, !tbaa !11
  %19 = load <2 x i64>, ptr %6, align 16, !tbaa !11
  %20 = call <2 x i64> @_mm_packs_epi16(<2 x i64> noundef %18, <2 x i64> noundef %19)
  store <2 x i64> %20, ptr %8, align 16, !tbaa !11
  call void @llvm.lifetime.start.p0(i64 16, ptr %9) #7
  %21 = load <2 x i64>, ptr %8, align 16, !tbaa !11
  %22 = load <2 x i64>, ptr %7, align 16, !tbaa !11
  %23 = call <2 x i64> @_mm_cmpeq_epi8(<2 x i64> noundef %21, <2 x i64> noundef %22)
  store <2 x i64> %23, ptr %9, align 16, !tbaa !11
  call void @llvm.lifetime.start.p0(i64 4, ptr %10) #7
  %24 = load <2 x i64>, ptr %9, align 16, !tbaa !11
  %25 = call i32 @_mm_movemask_epi8(<2 x i64> noundef %24)
  %26 = xor i32 65535, %25
  store i32 %26, ptr %10, align 4, !tbaa !12
  %27 = load i32, ptr %10, align 4, !tbaa !12
  %28 = icmp ne i32 %27, 0
  br i1 %28, label %29, label %32

29:                                               ; preds = %2
  %30 = load i32, ptr %10, align 4, !tbaa !12
  %31 = call i32 @BitsLog2Floor(i32 noundef %30)
  br label %33

32:                                               ; preds = %2
  br label %33

33:                                               ; preds = %32, %29
  %34 = phi i32 [ %31, %29 ], [ -1, %32 ]
  %35 = load ptr, ptr %4, align 8, !tbaa !9
  %36 = getelementptr inbounds nuw %struct.VP8Residual, ptr %35, i32 0, i32 1
  store i32 %34, ptr %36, align 4, !tbaa !14
  %37 = load ptr, ptr %3, align 8, !tbaa !7
  %38 = load ptr, ptr %4, align 8, !tbaa !9
  %39 = getelementptr inbounds nuw %struct.VP8Residual, ptr %38, i32 0, i32 2
  store ptr %37, ptr %39, align 8, !tbaa !19
  call void @llvm.lifetime.end.p0(i64 4, ptr %10) #7
  call void @llvm.lifetime.end.p0(i64 16, ptr %9) #7
  call void @llvm.lifetime.end.p0(i64 16, ptr %8) #7
  call void @llvm.lifetime.end.p0(i64 16, ptr %7) #7
  call void @llvm.lifetime.end.p0(i64 16, ptr %6) #7
  call void @llvm.lifetime.end.p0(i64 16, ptr %5) #7
  ret void
}