; Function Attrs: mustprogress nofree norecurse nosync nounwind willreturn memory(argmem: readwrite) uwtable
define internal void @SetResidualCoeffs_SSE2(ptr noalias noundef %0, ptr noalias noundef writeonly captures(none) initializes((4, 16)) %1) #1 {
  %3 = load <8 x i16>, ptr %0, align 1, !tbaa !7
  %4 = getelementptr inbounds nuw i8, ptr %0, i64 16
  %5 = load <8 x i16>, ptr %4, align 1, !tbaa !7
  %6 = tail call <16 x i8> @llvm.x86.sse2.packsswb.128(<8 x i16> %3, <8 x i16> %5)
  %7 = icmp eq <16 x i8> %6, zeroinitializer
  %8 = bitcast <16 x i1> %7 to i16
  %.not = icmp eq i16 %8, -1
  %9 = xor i16 %8, -1
  %10 = zext i16 %9 to i32
  %11 = tail call range(i32 0, 33) i32 @llvm.ctlz.i32(i32 range(i32 1, 0) %10, i1 true)
  %12 = xor i32 %11, 31
  %13 = select i1 %.not, i32 -1, i32 %12
  %14 = getelementptr inbounds nuw i8, ptr %1, i64 4
  store i32 %13, ptr %14, align 4, !tbaa !8
  %15 = getelementptr inbounds nuw i8, ptr %1, i64 8
  store ptr %0, ptr %15, align 8, !tbaa !15
  ret void
}